; Function Attrs: nofree norecurse nosync nounwind memory(argmem: readwrite) uwtable
define internal void @put_vp8_epel16_h4v6_c(ptr noundef writeonly captures(none) %0, i64 noundef %1, ptr noundef readonly captures(none) %2, i64 noundef %3, i32 noundef %4, i32 noundef %5, i32 noundef %6) #1 {
  %8 = alloca [592 x i8], align 16
  call void @llvm.lifetime.start.p0(i64 592, ptr nonnull %8) #5
  %9 = icmp sgt i32 %4, -5
  br i1 %9, label %.preheader68.lr.ph, label %._crit_edge80

.preheader68.lr.ph:                               ; preds = %7
  %.neg = mul i64 %3, -2
  %10 = getelementptr inbounds i8, ptr %2, i64 %.neg
  %11 = add nsw i32 %5, -1
  %12 = sext i32 %11 to i64
  %13 = getelementptr inbounds [7 x [6 x i8]], ptr @subpel_filters, i64 0, i64 %12
  %14 = getelementptr inbounds nuw i8, ptr %13, i64 2
  %15 = load i8, ptr %14, align 2, !tbaa !10
  %16 = zext i8 %15 to i32
  %17 = getelementptr inbounds nuw i8, ptr %13, i64 1
  %18 = load i8, ptr %17, align 1, !tbaa !10
  %19 = zext i8 %18 to i32
  %20 = getelementptr inbounds nuw i8, ptr %13, i64 3
  %21 = load i8, ptr %20, align 1, !tbaa !10
  %22 = zext i8 %21 to i32
  %23 = getelementptr inbounds nuw i8, ptr %13, i64 4
  %24 = load i8, ptr %23, align 2, !tbaa !10
  %25 = zext i8 %24 to i32
  %26 = add i32 %4, 4
  %smax = tail call i32 @llvm.smax.i32(i32 %26, i32 0)
  br label %.preheader68

.preheader68:                                     ; preds = %.preheader68.lr.ph, %53
  %.073 = phi ptr [ %8, %.preheader68.lr.ph ], [ %54, %53 ]
  %.05572 = phi i32 [ 0, %.preheader68.lr.ph ], [ %56, %53 ]
  %.06071 = phi ptr [ %10, %.preheader68.lr.ph ], [ %55, %53 ]
  %.pre = load i8, ptr %.06071, align 1, !tbaa !10
  br label %27

27:                                               ; preds = %.preheader68, %27
  %28 = phi i8 [ %.pre, %.preheader68 ], [ %36, %27 ]
  %indvars.iv = phi i64 [ 0, %.preheader68 ], [ %indvars.iv.next, %27 ]
  %29 = getelementptr inbounds nuw i8, ptr %.06071, i64 %indvars.iv
  %30 = zext i8 %28 to i32
  %31 = mul nuw nsw i32 %30, %16
  %32 = getelementptr i8, ptr %29, i64 -1
  %33 = load i8, ptr %32, align 1, !tbaa !10
  %34 = zext i8 %33 to i32
  %indvars.iv.next = add nuw nsw i64 %indvars.iv, 1
  %35 = getelementptr inbounds nuw i8, ptr %.06071, i64 %indvars.iv.next
  %36 = load i8, ptr %35, align 1, !tbaa !10
  %37 = zext i8 %36 to i32
  %38 = mul nuw nsw i32 %37, %22
  %39 = getelementptr inbounds nuw i8, ptr %29, i64 2
  %40 = load i8, ptr %39, align 1, !tbaa !10
  %41 = zext i8 %40 to i32
  %42 = mul nuw nsw i32 %19, %34
  %43 = mul nuw nsw i32 %25, %41
  %44 = add nuw nsw i32 %43, %42
  %45 = add nuw nsw i32 %31, 64
  %46 = add nuw nsw i32 %45, %38
  %47 = sub nsw i32 %46, %44
  %48 = ashr i32 %47, 7
  %49 = sext i32 %48 to i64
  %50 = getelementptr inbounds i8, ptr getelementptr inbounds nuw (i8, ptr @ff_crop_tab, i64 1024), i64 %49
  %51 = load i8, ptr %50, align 1, !tbaa !10
  %52 = getelementptr inbounds nuw i8, ptr %.073, i64 %indvars.iv
  store i8 %51, ptr %52, align 1, !tbaa !10
  %exitcond.not = icmp eq i64 %indvars.iv.next, 16
  br i1 %exitcond.not, label %53, label %27, !llvm.loop !27

53:                                               ; preds = %27
  %54 = getelementptr inbounds nuw i8, ptr %.073, i64 16
  %55 = getelementptr inbounds i8, ptr %.06071, i64 %3
  %56 = add nuw i32 %.05572, 1
  %exitcond82.not = icmp eq i32 %.05572, %smax
  br i1 %exitcond82.not, label %._crit_edge, label %.preheader68, !llvm.loop !28

._crit_edge:                                      ; preds = %53
  %57 = icmp sgt i32 %4, 0
  br i1 %57, label %.preheader.lr.ph, label %._crit_edge80

.preheader.lr.ph:                                 ; preds = %._crit_edge
  %58 = add nsw i32 %6, -1
  %59 = sext i32 %58 to i64
  %60 = getelementptr inbounds [7 x [6 x i8]], ptr @subpel_filters, i64 0, i64 %59
  %61 = getelementptr inbounds nuw i8, ptr %8, i64 32
  %62 = getelementptr inbounds nuw i8, ptr %60, i64 2
  %63 = load i8, ptr %62, align 2, !tbaa !10
  %64 = zext i8 %63 to i32
  %65 = getelementptr inbounds nuw i8, ptr %60, i64 1
  %66 = load i8, ptr %65, align 1, !tbaa !10
  %67 = zext i8 %66 to i32
  %68 = load i8, ptr %60, align 2, !tbaa !10
  %69 = zext i8 %68 to i32
  %70 = getelementptr inbounds nuw i8, ptr %60, i64 3
  %71 = load i8, ptr %70, align 1, !tbaa !10
  %72 = zext i8 %71 to i32
  %73 = getelementptr inbounds nuw i8, ptr %60, i64 4
  %74 = load i8, ptr %73, align 2, !tbaa !10
  %75 = zext i8 %74 to i32
  %76 = getelementptr inbounds nuw i8, ptr %60, i64 5
  %77 = load i8, ptr %76, align 1, !tbaa !10
  %78 = zext i8 %77 to i32
  br label %.preheader

.preheader:                                       ; preds = %.preheader.lr.ph, %115
  %.179 = phi ptr [ %61, %.preheader.lr.ph ], [ %117, %115 ]
  %.15678 = phi i32 [ 0, %.preheader.lr.ph ], [ %118, %115 ]
  %.05977 = phi ptr [ %0, %.preheader.lr.ph ], [ %116, %115 ]
  br label %79

79:                                               ; preds = %.preheader, %79
  %indvars.iv83 = phi i64 [ 0, %.preheader ], [ %indvars.iv.next84, %79 ]
  %80 = getelementptr inbounds nuw i8, ptr %.179, i64 %indvars.iv83
  %81 = load i8, ptr %80, align 1, !tbaa !10
  %82 = zext i8 %81 to i32
  %83 = mul nuw nsw i32 %82, %64
  %84 = getelementptr i8, ptr %80, i64 -16
  %85 = load i8, ptr %84, align 1, !tbaa !10
  %86 = zext i8 %85 to i32
  %87 = mul nuw nsw i32 %67, %86
  %88 = getelementptr i8, ptr %80, i64 -32
  %89 = load i8, ptr %88, align 1, !tbaa !10
  %90 = zext i8 %89 to i32
  %91 = mul nuw nsw i32 %90, %69
  %92 = getelementptr inbounds nuw i8, ptr %80, i64 16
  %93 = load i8, ptr %92, align 1, !tbaa !10
  %94 = zext i8 %93 to i32
  %95 = mul nuw nsw i32 %94, %72
  %96 = getelementptr inbounds nuw i8, ptr %80, i64 32
  %97 = load i8, ptr %96, align 1, !tbaa !10
  %98 = zext i8 %97 to i32
  %99 = mul nuw nsw i32 %75, %98
  %100 = getelementptr inbounds nuw i8, ptr %80, i64 48
  %101 = load i8, ptr %100, align 1, !tbaa !10
  %102 = zext i8 %101 to i32
  %103 = mul nuw nsw i32 %102, %78
  %104 = add nuw nsw i32 %99, %87
  %105 = add nuw nsw i32 %83, 64
  %106 = add nuw nsw i32 %105, %91
  %107 = add nuw nsw i32 %106, %95
  %108 = add nuw nsw i32 %107, %103
  %109 = sub nsw i32 %108, %104
  %110 = ashr i32 %109, 7
  %111 = sext i32 %110 to i64
  %112 = getelementptr inbounds i8, ptr getelementptr inbounds nuw (i8, ptr @ff_crop_tab, i64 1024), i64 %111
  %113 = load i8, ptr %112, align 1, !tbaa !10
  %114 = getelementptr inbounds nuw i8, ptr %.05977, i64 %indvars.iv83
  store i8 %113, ptr %114, align 1, !tbaa !10
  %indvars.iv.next84 = add nuw nsw i64 %indvars.iv83, 1
  %exitcond86.not = icmp eq i64 %indvars.iv.next84, 16
  br i1 %exitcond86.not, label %115, label %79, !llvm.loop !29

115:                                              ; preds = %79
  %116 = getelementptr inbounds i8, ptr %.05977, i64 %1
  %117 = getelementptr inbounds nuw i8, ptr %.179, i64 16
  %118 = add nuw nsw i32 %.15678, 1
  %exitcond87.not = icmp eq i32 %118, %4
  br i1 %exitcond87.not, label %._crit_edge80, label %.preheader, !llvm.loop !30

._crit_edge80:                                    ; preds = %115, %7, %._crit_edge
  call void @llvm.lifetime.end.p0(i64 592, ptr nonnull %8) #5
  ret void
}